(dp0
S'to_messages'
p1
(lp2
I807
aI0
aI0
aI764
aI1045
aI0
aI232
aI2355
aI2350
aI1238
aI128
aI111
aI2475
aI2647
aI169
aI0
aI1758
aI136
aI258
aI0
aI0
aI671
aI0
aI0
aI0
aI3221
aI0
aI383
aI0
aI1607
aI1328
aI0
aI0
aI573
aI0
aI0
aI1320
aI0
aI952
aI504
aI1433
aI0
aI2822
aI0
aI0
aI0
aI0
aI653
aI0
aI566
aI0
aI0
aI3187
aI225
aI0
aI714
aI0
aI0
aI3329
aI58
aI3093
aI0
aI0
aI0
aI0
aI4273
aI0
aI1184
aI894
aI0
aI0
aI1744
aI0
aI0
aI0
aI4009
aI1858
aI0
aI936
aI672
aI1671
aI0
aI0
aI904
aI266
aI0
aI57
aI2598
aI905
aI4607
aI0
aI102
aI0
aI0
aI0
aI3627
aI0
aI613
aI0
aI0
aI898
aI0
aI0
aI0
aI0
aI517
aI400
aI0
aI0
aI2902
aI3136
aI0
aI0
aI1486
aI0
aI719
aI0
aI0
aI523
aI312
aI1088
aI0
aI2192
aI209
aI176
aI0
aI0
aI2572
aI2181
aI3275
aI0
aI0
aI2649
aI0
aI1755
aI2374
aI0
aI496
aI460
aI1522
aI3523
aI0
aI1892
aI533
aI865
aI873
asS'deferral_payments'
p3
(lp4
I0
aI1295738
aI0
aI0
aI0
aI0
aI1848227
aI0
aI0
aI1130036
aI0
aI0
aI0
aI0
aI504610
aI0
aI27610
aI842924
aI0
aI0
aI53625
aI0
aI0
aI0
aI-102500
aI0
aI0
aI0
aI0
aI0
aI214678
aI0
aI0
aI0
aI0
aI0
aI0
aI0
aI0
aI7961
aI0
aI0
aI0
aI0
aI0
aI875307
aI0
aI0
aI0
aI0
aI0
aI0
aI0
aI0
aI0
aI0
aI0
aI0
aI0
aI0
aI0
aI181993
aI0
aI204075
aI0
aI202911
aI0
aI77716
aI0
aI0
aI73122
aI0
aI0
aI0
aI0
aI0
aI0
aI0
aI0
aI0
aI0
aI684694
aI0
aI0
aI16586
aI0
aI181755
aI0
aI0
aI0
aI0
aI0
aI0
aI0
aI0
aI0
aI0
aI0
aI564348
aI93585
aI0
aI0
aI774401
aI0
aI0
aI0
aI831299
aI0
aI0
aI0
aI187469
aI0
aI0
aI0
aI178980
aI0
aI51365
aI0
aI0
aI0
aI0
aI0
aI0
aI0
aI0
aI0
aI10259
aI0
aI0
aI0
aI0
aI260455
aI0
aI50591
aI0
aI0
aI0
aI0
aI0
aI85430
aI649584
aI0
aI0
aI227449
aI0
aI0
asS'expenses'
p5
(lp6
I94299
aI11200
aI78552
aI0
aI34039
aI35018
aI0
aI0
aI0
aI43057
aI4994
aI53122
aI84208
aI0
aI0
aI0
aI16514
aI0
aI10181
aI51870
aI33785
aI50936
aI5774
aI0
aI0
aI0
aI0
aI59175
aI0
aI38559
aI33271
aI0
aI37172
aI475
aI21530
aI148
aI98849
aI0
aI0
aI0
aI0
aI118134
aI0
aI49537
aI11892
aI52255
aI103773
aI0
aI0
aI56301
aI0
aI0
aI0
aI22884
aI0
aI41626
aI116335
aI57838
aI81364
aI0
aI86174
aI0
aI0
aI57727
aI2151
aI99832
aI9410
aI63791
aI0
aI22344
aI50080
aI0
aI48357
aI0
aI0
aI76169
aI65907
aI0
aI23870
aI0
aI14689
aI0
aI17355
aI25785
aI46145
aI55921
aI0
aI35818
aI46950
aI83585
aI0
aI27861
aI18834
aI27942
aI16514
aI29336
aI1279
aI0
aI0
aI0
aI31653
aI0
aI0
aI41953
aI0
aI0
aI0
aI81353
aI0
aI13868
aI116337
aI0
aI1413
aI49288
aI3486
aI0
aI8409
aI35812
aI0
aI0
aI600
aI55097
aI57580
aI48405
aI28164
aI53947
aI77978
aI3475
aI51124
aI86987
aI32047
aI0
aI0
aI0
aI95924
aI127017
aI0
aI28093
aI0
aI8211
aI0
aI0
aI30674
aI0
aI96268
aI125978
asS'poi'
p7
(lp8
I00
aI00
aI00
aI00
aI01
aI00
aI00
aI00
aI00
aI00
aI00
aI00
aI00
aI00
aI00
aI00
aI01
aI00
aI00
aI00
aI00
aI00
aI00
aI00
aI00
aI00
aI00
aI00
aI00
aI00
aI01
aI00
aI00
aI00
aI00
aI00
aI00
aI00
aI00
aI00
aI00
aI01
aI00
aI00
aI00
aI00
aI00
aI00
aI00
aI00
aI00
aI00
aI00
aI01
aI00
aI00
aI00
aI00
aI00
aI00
aI01
aI00
aI00
aI00
aI00
aI01
aI00
aI00
aI00
aI00
aI00
aI00
aI00
aI00
aI00
aI00
aI01
aI00
aI00
aI00
aI00
aI00
aI01
aI00
aI00
aI01
aI00
aI01
aI01
aI00
aI00
aI00
aI00
aI00
aI00
aI01
aI00
aI00
aI00
aI00
aI00
aI00
aI00
aI00
aI00
aI00
aI00
aI00
aI00
aI00
aI00
aI00
aI00
aI00
aI00
aI00
aI00
aI00
aI00
aI00
aI00
aI00
aI00
aI00
aI00
aI01
aI01
aI00
aI00
aI00
aI00
aI00
aI00
aI00
aI00
aI01
aI00
aI00
aI00
aI00
aI00
aI00
aI01
aI00
aI00
aI01
asS'from_poi_frac'
p9
(lp10
F1.3103448275862069
aI0
aI0
aF0.8333333333333334
aF1.0
aI0
aF0.0
aF1.2083333333333333
aF0.04100652376514446
aF0.2747747747747748
aF0.5882352941176471
aF0.6666666666666666
aF1.7857142857142858
aF0.9736842105263158
aF0.0
aI0
aF0.0
aF0.75
aF0.44642857142857145
aI0
aI0
aF0.11643835616438356
aF0.0
aI0
aI0
aI0
aI0
aF0.06779661016949153
aI0
aF0.575
aF0.4268292682926829
aI0
aI0
aF0.21052631578947367
aI0
aI0
aF1.4814814814814814
aI0
aF0.38461538461538464
aF1.3333333333333333
aF0.11627906976744186
aI0
aF1.0634920634920635
aI0
aI0
aI0
aI0
aF0.0
aI0
aF1.3448275862068966
aI0
aF0.060905349794238686
aF0.30434782608695654
aF0.3333333333333333
aI0
aF1.554054054054054
aI0
aF0.3345323741007194
aI0
aF0.0
aI0
aI0
aI0
aI0
aI0
aF3.4166666666666665
aI0
aF0.38461538461538464
aF4.153846153846154
aI0
aI0
aF1.0612244897959184
aI0
aI0
aI0
aF0.09273570324574962
aF5.185185185185185
aI0
aF0.0625
aF0.0
aF0.0
aI0
aF0.0
aF8.833333333333334
aF0.0
aI0
aF0.0
aF1.3819444444444444
aF2.3333333333333335
aI0
aI0
aF0.0
aI0
aI0
aI0
aF0.8148148148148148
aI0
aF1.56
aI0
aI0
aF0.1044776119402985
aI0
aI0
aI0
aI0
aF0.0
aF0.7333333333333333
aI0
aI0
aF0.0214123006833713
aF0.17647058823529413
aI0
aI0
aF0.3170731707317073
aI0
aF1.0294117647058822
aI0
aI0
aF0.0
aF1.9333333333333333
aF0.0
aI0
aF0.24444444444444444
aF0.22727272727272727
aF0.7142857142857143
aI0
aI0
aF0.0
aF0.0704070407040704
aF0.0
aI0
aI0
aF0.03298774740810556
aI0
aF0.56
aF0.8688524590163934
aI0
aF1.4736842105263157
aF0.5263157894736842
aF0.034782608695652174
aF0.14814814814814814
aI0
aF1.183673469387755
aF0.0
aF8.545454545454545
aF3.25
asS'long_term_incentive'
p11
(lp12
I0
aI1586055
aI0
aI0
aI1617011
aI0
aI0
aI694862
aI0
aI0
aI0
aI0
aI831809
aI476451
aI461912
aI0
aI0
aI1725545
aI0
aI256191
aI0
aI540751
aI0
aI0
aI0
aI554422
aI0
aI180250
aI0
aI369721
aI0
aI0
aI0
aI0
aI0
aI0
aI69223
aI0
aI0
aI0
aI0
aI602671
aI1387399
aI0
aI0
aI415657
aI0
aI0
aI304805
aI0
aI0
aI0
aI554422
aI0
aI0
aI335349
aI0
aI808346
aI554422
aI0
aI1294981
aI554422
aI0
aI175000
aI0
aI0
aI175000
aI100000
aI0
aI275000
aI0
aI0
aI150000
aI0
aI0
aI983346
aI974293
aI0
aI556416
aI0
aI0
aI93750
aI0
aI1105218
aI200000
aI0
aI0
aI375304
aI1617011
aI323466
aI0
aI0
aI135836
aI0
aI0
aI0
aI0
aI0
aI0
aI365625
aI0
aI0
aI0
aI300000
aI0
aI0
aI200000
aI0
aI0
aI304805
aI422158
aI0
aI0
aI0
aI0
aI0
aI156250
aI694862
aI0
aI75000
aI304805
aI0
aI125000
aI375304
aI0
aI0
aI0
aI556416
aI484000
aI1617011
aI0
aI0
aI0
aI0
aI374347
aI300000
aI0
aI312500
aI275000
aI0
aI769862
aI0
aI350000
aI0
aI0
aI71023
asS'email_address'
p13
(lp14
S'mark.metts@enron.com'
p15
aI0
aS'steven.elliott@enron.com'
p16
aS'bill.cordes@enron.com'
p17
aS'kevin.hannon@enron.com'
p18
aS'kristina.mordaunt@enron.com'
p19
aS'rockford.meyer@enron.com'
p20
aS'jeffrey.mcmahon@enron.com'
p21
aS'stanley.horton@enron.com'
p22
aS'greg.piper@enron.com'
p23
aS'gene.humphrey@enron.com'
p24
aS'adam.umanoff@enron.com'
p25
aS'jeremy.blachman@enron.com'
p26
aS'marty.sunde@enron.com'
p27
aS'dana.gibbs@enron.com'
p28
aI0
aI0
aS's..muller@enron.com'
p29
aS'charlene.jackson@enron.com'
p30
aS'dick.westfahl@enron.com'
p31
aI0
aS'rob.walls@enron.com'
p32
aS'louise.kitchen@enron.com'
p33
aI0
aI0
aS'jeffrey.shankman@enron.com'
p34
aS'john.wodraska@enron.com'
p35
aS'rick.bergsieker@enron.com'
p36
aI0
aS'philippe.bibi@enron.com'
p37
aS'paula.rieker@enron.com'
p38
aI0
aS'sally.beck@enron.com'
p39
aS'david.haug@enron.com'
p40
aS'john.echols@enron.com'
p41
aI0
aS'gary.hickerson@enron.com'
p42
aI0
aS'richard.lewis@enron.com'
p43
aS'robert.hayes@enron.com'
p44
aS'danny.mccarty@enron.com'
p45
aS'michael.kopper@enron.com'
p46
aS'dan.leff@enron.com'
p47
aS'john.lavorato@enron.com'
p48
aS'david.berberian@enron.com'
p49
aI0
aI0
aS'ken.powers@enron.com'
p50
aS'joe.gold@enron.com'
p51
aS'james.bannantine@enron.com'
p52
aI0
aS'richard.shapiro@enron.com'
p53
aS'john.sherriff@enron.com'
p54
aS'rex.shelby@enron.com'
p55
aI0
aS'joseph.deffner@enron.com'
p56
aS'joe.kishkill@enron.com'
p57
aS'greg.whalley@enron.com'
p58
aS'mike.mcconnell@enron.com'
p59
aS'jim.piro@enron.com'
p60
aS'david.delainey@enron.com'
p61
aI0
aI0
aI0
aI0
aS'kenneth.lay@enron.com'
p62
aS'bob.butts@enron.com'
p63
aS'cindy.olson@enron.com'
p64
aS'rebecca.mcdonald@enron.com'
p65
aI0
aI0
aS'george.mcclellan@enron.com'
p66
aS'robert.hermann@enron.com'
p67
aS'matthew.scrimshaw@enron.com'
p68
aI0
aS'mark.haedicke@enron.com'
p69
aS'raymond.bowen@enron.com'
p70
aI0
aS'jay.fitzgerald@enron.com'
p71
aS'michael.moran@enron.com'
p72
aS'brian.redmond@enron.com'
p73
aI0
aS'tim.belden@enron.com'
p74
aI0
aS'terence.thorn@enron.com'
p75
aS'andrew.fastow@enron.com'
p76
aI0
aS'christopher.calger@enron.com'
p77
aS'ken.rice@enron.com'
p78
aI0
aI0
aS'chip.cox@enron.com'
p79
aS'jere.overdyke@enron.com'
p80
aI0
aS'frank.stabler@enron.com'
p81
aS'jeff.skilling@enron.com'
p82
aI0
aS'jeffrey.sherrick@enron.com'
p83
aS'james.prentice@enron.com'
p84
aI0
aS'mark.pickering@enron.com'
p85
aI0
aI0
aS'steven.kean@enron.com'
p86
aI0
aS'kulvinder.fowler@enron.com'
p87
aS'george.wasaff@enron.com'
p88
aS'thomas.white@enron.com'
p89
aS'diomedes.christodoulou@enron.com'
p90
aS'phillip.allen@enron.com'
p91
aI0
aI0
aI0
aS'michael.brown@enron.com'
p92
aI0
aS'james.hughes@enron.com'
p93
aI0
aS'richard.dimichele@enron.com'
p94
aS'sanjay.bhatnagar@enron.com'
p95
aS'rebecca.carter@enron.com'
p96
aS'john.buchanan@enron.com'
p97
aI0
aS'julia.murray@enron.com'
p98
aS'kevin.garland@enron.com'
p99
aS'keith.dodson@enron.com'
p100
aS'scott.yeager@enron.com'
p101
aS'joe.hirko@enron.com'
p102
aS'janet.dietrich@enron.com'
p103
aS'james.derrick@enron.com'
p104
aS'mark.frevert@enron.com'
p105
aS'lou.pai@enron.com'
p106
aS'frank.bay@enron.com'
p107
aS'rod.hayslett@enron.com'
p108
aI0
aS'jim.fallon@enron.com'
p109
aS'mark.koenig@enron.com'
p110
aI0
aS'larry.izzo@enron.com'
p111
aS'elizabeth.tilney@enron.com'
p112
aS'a..martin@enron.com'
p113
aS'rick.buy@enron.com'
p114
aI0
aS'richard.causey@enron.com'
p115
aS'mitchell.taylor@enron.com'
p116
aS'jeff.donahue@enron.com'
p117
aS'ben.glisan@enron.com'
p118
asS'from_poi_to_this_person'
p119
(lp120
I38
aI0
aI0
aI10
aI32
aI0
aI0
aI58
aI44
aI61
aI10
aI12
aI25
aI37
aI0
aI0
aI0
aI12
aI25
aI0
aI0
aI17
aI0
aI0
aI0
aI94
aI0
aI4
aI0
aI23
aI35
aI0
aI144
aI4
aI0
aI0
aI40
aI0
aI10
aI16
aI25
aI0
aI67
aI0
aI0
aI0
aI0
aI0
aI0
aI39
aI0
aI74
aI28
aI13
aI0
aI115
aI0
aI186
aI92
aI0
aI66
aI0
aI0
aI0
aI0
aI123
aI0
aI20
aI54
aI0
aI0
aI52
aI0
aI0
aI0
aI180
aI140
aI0
aI1
aI0
aI0
aI0
aI0
aI106
aI0
aI0
aI0
aI199
aI42
aI41
aI0
aI0
aI0
aI0
aI0
aI88
aI0
aI39
aI0
aI0
aI7
aI0
aI0
aI140
aI0
aI0
aI22
aI0
aI0
aI47
aI24
aI0
aI0
aI13
aI0
aI35
aI0
aI0
aI0
aI29
aI0
aI0
aI11
aI10
aI10
aI0
aI0
aI0
aI64
aI0
aI0
aI0
aI35
aI0
aI42
aI53
aI0
aI28
aI10
aI8
aI156
aI0
aI58
aI0
aI188
aI52
asS'deferred_income'
p121
(lp122
I0
aI-1386055
aI-400729
aI0
aI-3117011
aI0
aI0
aI0
aI0
aI-33333
aI0
aI0
aI0
aI0
aI0
aI0
aI-144062
aI-719000
aI0
aI-10800
aI0
aI0
aI0
aI-98784
aI0
aI0
aI0
aI-485813
aI-36666
aI0
aI-100000
aI0
aI0
aI0
aI0
aI-103750
aI0
aI0
aI0
aI0
aI0
aI0
aI0
aI0
aI0
aI-775241
aI0
aI-17500
aI0
aI-5104
aI-25000
aI0
aI0
aI-4167
aI-25000
aI0
aI-51042
aI0
aI0
aI0
aI0
aI0
aI0
aI0
aI-38346
aI-300000
aI-75000
aI0
aI0
aI0
aI-1042
aI-125000
aI-280000
aI0
aI0
aI-934484
aI-833
aI0
aI0
aI0
aI0
aI0
aI-2334434
aI0
aI0
aI-1386055
aI0
aI-262500
aI-3504386
aI0
aI0
aI-41250
aI0
aI-101250
aI0
aI0
aI-113784
aI0
aI0
aI0
aI0
aI0
aI0
aI0
aI-27992891
aI0
aI-583325
aI0
aI0
aI-3081055
aI0
aI-25000
aI-25000
aI0
aI0
aI0
aI-200000
aI0
aI0
aI-159792
aI0
aI0
aI0
aI0
aI0
aI0
aI0
aI0
aI-1284000
aI-3367011
aI0
aI-201641
aI0
aI0
aI0
aI0
aI-121284
aI0
aI-575000
aI0
aI-694862
aI0
aI-235000
aI0
aI-300000
aI0
asS'restricted_stock_deferred'
p123
(lp124
I0
aI0
aI0
aI0
aI0
aI0
aI0
aI0
aI0
aI-409554
aI0
aI0
aI0
aI0
aI0
aI-153686
aI0
aI0
aI0
aI0
aI0
aI0
aI0
aI-32460
aI0
aI0
aI0
aI0
aI0
aI0
aI0
aI0
aI0
aI0
aI0
aI0
aI0
aI-472568
aI0
aI0
aI0
aI0
aI0
aI0
aI0
aI-315068
aI0
aI0
aI0
aI-560222
aI0
aI0
aI0
aI0
aI0
aI0
aI0
aI0
aI0
aI0
aI0
aI0
aI0
aI0
aI0
aI0
aI0
aI0
aI0
aI0
aI0
aI0
aI0
aI0
aI-72419
aI-329825
aI0
aI0
aI0
aI0
aI0
aI0
aI0
aI0
aI0
aI0
aI0
aI0
aI0
aI0
aI0
aI0
aI0
aI0
aI0
aI0
aI0
aI0
aI0
aI0
aI0
aI0
aI-94556
aI0
aI-7576788
aI0
aI0
aI0
aI0
aI-126027
aI0
aI-44093
aI0
aI0
aI0
aI0
aI-140264
aI0
aI0
aI-307301
aI0
aI0
aI0
aI0
aI0
aI0
aI0
aI0
aI-1787380
aI0
aI0
aI-82782
aI0
aI0
aI0
aI0
aI0
aI0
aI0
aI0
aI0
aI0
aI0
aI0
aI0
aI0
asS'shared_receipt_with_poi'
p125
(lp126
I702
aI0
aI0
aI58
aI1035
aI0
aI22
aI2228
aI1074
aI742
aI119
aI41
aI2326
aI2565
aI23
aI0
aI1132
aI114
aI117
aI0
aI0
aI215
aI0
aI0
aI0
aI1730
aI0
aI233
aI0
aI1336
aI1258
aI0
aI2639
aI471
aI0
aI0
aI900
aI0
aI739
aI50
aI508
aI0
aI2672
aI0
aI0
aI0
aI0
aI12
aI0
aI465
aI0
aI0
aI2103
aI91
aI0
aI552
aI0
aI0
aI2189
aI3
aI2097
aI0
aI0
aI0
aI0
aI2411
aI0
aI856
aI720
aI0
aI0
aI1469
aI0
aI0
aI0
aI1847
aI1593
aI0
aI723
aI127
aI1063
aI0
aI0
aI599
aI73
aI0
aI2
aI2188
aI864
aI583
aI0
aI71
aI0
aI0
aI0
aI2042
aI0
aI583
aI0
aI0
aI728
aI0
aI0
aI0
aI0
aI10
aI337
aI0
aI0
aI1407
aI2477
aI0
aI0
aI761
aI0
aI589
aI0
aI0
aI463
aI196
aI23
aI0
aI395
aI178
aI114
aI0
aI0
aI1902
aI1401
aI0
aI0
aI0
aI571
aI0
aI1604
aI2271
aI0
aI437
aI379
aI477
aI2333
aI0
aI1585
aI300
aI772
aI874
asS'loan_advances'
p127
(lp128
I0
aI0
aI0
aI0
aI0
aI0
aI0
aI0
aI0
aI0
aI0
aI0
aI0
aI0
aI0
aI0
aI0
aI0
aI0
aI0
aI0
aI0
aI0
aI0
aI0
aI0
aI0
aI0
aI0
aI0
aI0
aI0
aI0
aI0
aI0
aI0
aI0
aI0
aI0
aI0
aI0
aI0
aI0
aI0
aI0
aI0
aI0
aI0
aI0
aI0
aI0
aI0
aI0
aI0
aI0
aI0
aI0
aI0
aI0
aI0
aI0
aI0
aI0
aI0
aI0
aI0
aI0
aI0
aI0
aI0
aI0
aI0
aI0
aI0
aI0
aI0
aI0
aI0
aI0
aI0
aI0
aI0
aI0
aI0
aI0
aI0
aI0
aI0
aI0
aI0
aI0
aI0
aI0
aI0
aI0
aI0
aI0
aI0
aI0
aI0
aI0
aI0
aI0
aI0
aI0
aI0
aI0
aI0
aI0
aI0
aI0
aI0
aI0
aI0
aI0
aI0
aI0
aI0
aI0
aI0
aI0
aI0
aI0
aI0
aI0
aI0
aI0
aI0
aI0
aI0
aI0
aI0
aI0
aI0
aI0
aI0
aI0
aI0
aI0
aI0
aI0
aI0
aI0
aI0
aI0
aI0
asS'from_messages'
p129
(lp130
I29
aI0
aI0
aI12
aI32
aI0
aI28
aI48
aI1073
aI222
aI17
aI18
aI14
aI38
aI12
aI0
aI40
aI16
aI56
aI0
aI0
aI146
aI1728
aI0
aI0
aI0
aI0
aI59
aI0
aI40
aI82
aI0
aI0
aI19
aI0
aI0
aI27
aI0
aI26
aI12
aI215
aI0
aI63
aI0
aI0
aI0
aI0
aI26
aI0
aI29
aI0
aI1215
aI92
aI39
aI0
aI74
aI0
aI556
aI0
aI16
aI0
aI0
aI0
aI0
aI0
aI36
aI0
aI52
aI13
aI0
aI0
aI49
aI0
aI0
aI0
aI1941
aI27
aI0
aI16
aI19
aI221
aI0
aI484
aI12
aI41
aI0
aI13
aI144
aI18
aI0
aI0
aI33
aI0
aI0
aI0
aI108
aI0
aI25
aI0
aI0
aI67
aI0
aI0
aI0
aI0
aI36
aI30
aI0
aI0
aI2195
aI136
aI0
aI0
aI41
aI0
aI34
aI0
aI0
aI29
aI15
aI125
aI0
aI45
aI44
aI14
aI0
aI0
aI63
aI909
aI21
aI0
aI0
aI1061
aI0
aI75
aI61
aI0
aI19
aI19
aI230
aI1053
aI0
aI49
aI29
aI22
aI16
asS'other'
p131
(lp132
I1740
aI0
aI12961
aI0
aI11350
aI1411
aI0
aI297353
aI0
aI778
aI0
aI0
aI272
aI111122
aI0
aI0
aI101740
aI947
aI2435
aI401130
aI0
aI2
aI93925
aI0
aI0
aI1191
aI189583
aI427316
aI0
aI425688
aI1950
aI0
aI566
aI0
aI53775
aI0
aI1936
aI0
aI0
aI0
aI0
aI907502
aI3083
aI1552
aI0
aI1105
aI0
aI0
aI819288
aI864523
aI0
aI705
aI0
aI1573324
aI0
aI25553
aI465357
aI301026
aI540
aI0
aI1661
aI162
aI0
aI2630
aI0
aI0
aI150656
aI972
aI0
aI713
aI76547
aI51587
aI416441
aI0
aI0
aI52382
aI1621
aI0
aI285414
aI0
aI0
aI874
aI210698
aI1568
aI426629
aI277464
aI0
aI486
aI174839
aI4669
aI0
aI494
aI176
aI0
aI356071
aI22122
aI0
aI0
aI0
aI680833
aI0
aI362096
aI0
aI1231
aI0
aI0
aI1425
aI1085463
aI0
aI152
aI2401
aI0
aI0
aI0
aI0
aI0
aI202052
aI374689
aI137864
aI540
aI1215
aI0
aI330
aI60814
aI774
aI147950
aI2856
aI473
aI7482
aI0
aI0
aI69
aI0
aI0
aI401481
aI150458
aI0
aI1553729
aI152055
aI0
aI400572
aI0
aI307895
aI0
aI891
aI200308
asS'director_fees'
p133
(lp134
I0
aI0
aI0
aI0
aI0
aI0
aI0
aI0
aI0
aI0
aI0
aI0
aI0
aI0
aI0
aI0
aI0
aI0
aI0
aI0
aI0
aI0
aI0
aI98784
aI3285
aI0
aI0
aI0
aI36666
aI0
aI0
aI0
aI0
aI0
aI0
aI103750
aI0
aI0
aI0
aI0
aI0
aI0
aI0
aI0
aI0
aI0
aI0
aI17500
aI0
aI0
aI102492
aI0
aI0
aI0
aI0
aI0
aI0
aI0
aI0
aI0
aI0
aI0
aI0
aI0
aI38346
aI0
aI0
aI0
aI0
aI0
aI0
aI0
aI0
aI0
aI0
aI0
aI0
aI0
aI0
aI0
aI0
aI0
aI0
aI0
aI0
aI0
aI0
aI0
aI0
aI0
aI0
aI0
aI0
aI101250
aI0
aI0
aI0
aI0
aI0
aI0
aI0
aI0
aI0
aI0
aI0
aI0
aI0
aI0
aI0
aI0
aI0
aI108750
aI108579
aI0
aI0
aI0
aI0
aI0
aI0
aI0
aI0
aI0
aI0
aI0
aI0
aI0
aI0
aI0
aI0
aI0
aI0
aI0
aI0
aI0
aI0
aI0
aI0
aI0
aI0
aI0
aI0
aI0
aI0
aI0
aI0
aI0
asS'bonus'
p135
(lp136
I600000
aI1200000
aI350000
aI0
aI1500000
aI325000
aI0
aI2600000
aI0
aI400000
aI0
aI788750
aI850000
aI700000
aI0
aI0
aI1200000
aI1100000
aI250000
aI0
aI0
aI850000
aI0
aI0
aI0
aI2000000
aI0
aI250000
aI0
aI1000000
aI700000
aI0
aI700000
aI0
aI200000
aI0
aI1700000
aI0
aI0
aI0
aI0
aI800000
aI1000000
aI0
aI0
aI425000
aI0
aI0
aI750000
aI0
aI0
aI650000
aI1500000
aI200000
aI0
aI600000
aI0
aI3000000
aI1100000
aI0
aI3000000
aI100000
aI0
aI200000
aI0
aI0
aI750000
aI750000
aI0
aI325000
aI509870
aI900000
aI700000
aI0
aI0
aI1150000
aI1350000
aI0
aI350000
aI0
aI0
aI0
aI0
aI750000
aI0
aI1300000
aI0
aI1250000
aI1750000
aI400000
aI0
aI800000
aI0
aI0
aI500000
aI0
aI0
aI0
aI0
aI0
aI300000
aI0
aI0
aI1000000
aI0
aI0
aI325000
aI450000
aI0
aI0
aI600000
aI0
aI0
aI0
aI0
aI0
aI100000
aI1000000
aI0
aI300000
aI500000
aI0
aI400000
aI850000
aI70000
aI0
aI0
aI600000
aI800000
aI2000000
aI1000000
aI400000
aI0
aI0
aI2500000
aI700000
aI0
aI0
aI300000
aI0
aI900000
aI0
aI1000000
aI600000
aI800000
aI600000
asS'total_stock_value'
p137
(lp138
I585062
aI10623258
aI6678735
aI1038185
aI6391065
aI208510
aI955873
aI1662855
aI7256648
aI880290
aI2282768
aI0
aI954354
aI698920
aI2218275
aI372205
aI698242
aI1416848
aI725735
aI384930
aI1030329
aI5898997
aI547143
aI0
aI-44093
aI2072035
aI0
aI659249
aI0
aI1843816
aI1918887
aI98718
aI126027
aI2217299
aI1008941
aI0
aI441096
aI189518
aI850477
aI151418
aI758931
aI985032
aI360528
aI5167144
aI2493616
aI2027865
aI0
aI0
aI877611
aI5243487
aI371750
aI987001
aI3128982
aI2493616
aI412878
aI159211
aI1034346
aI6079137
aI3101279
aI47304
aI3614261
aI1362375
aI139130
aI3064208
aI0
aI0
aI417619
aI2606763
aI1691366
aI207940
aI318607
aI947861
aI668132
aI759557
aI1945360
aI803094
aI252055
aI85641
aI1621236
aI221141
aI7890324
aI1599641
aI1110705
aI1640910
aI4817796
aI1794412
aI343434
aI126027
aI0
aI976037
aI0
aI495633
aI7307594
aI0
aI511734
aI0
aI0
aI1832468
aI1095040
aI0
aI28798
aI0
aI368705
aI6153642
aI0
aI1884748
aI2056427
aI0
aI6077885
aI1729541
aI494136
aI431750
aI0
aI0
aI257817
aI1118394
aI4221891
aI8317782
aI0
aI0
aI1014505
aI192758
aI597461
aI896153
aI0
aI11884758
aI0
aI1865087
aI8831913
aI14622185
aI0
aI63014
aI346663
aI176378
aI2332399
aI1920055
aI0
aI5819980
aI1168042
aI2070306
aI3444470
aI0
aI2502063
aI3745048
aI1080988
aI778546
asS'from_this_person_to_poi'
p139
(lp140
I1
aI0
aI0
aI0
aI21
aI0
aI0
aI26
aI15
aI48
aI17
aI0
aI2
aI13
aI0
aI0
aI11
aI0
aI19
aI0
aI0
aI0
aI0
aI0
aI0
aI83
aI0
aI0
aI0
aI8
aI48
aI0
aI0
aI7
aI0
aI0
aI1
aI0
aI0
aI0
aI2
aI0
aI14
aI0
aI0
aI0
aI0
aI0
aI0
aI0
aI0
aI65
aI23
aI14
aI0
aI4
aI0
aI24
aI0
aI1
aI0
aI0
aI0
aI0
aI0
aI16
aI0
aI15
aI1
aI0
aI0
aI0
aI0
aI0
aI0
aI61
aI15
aI0
aI8
aI0
aI49
aI0
aI108
aI3
aI0
aI0
aI0
aI25
aI4
aI0
aI0
aI4
aI0
aI0
aI0
aI30
aI0
aI18
aI0
aI0
aI0
aI0
aI0
aI0
aI0
aI0
aI7
aI0
aI0
aI65
aI6
aI0
aI0
aI1
aI0
aI5
aI0
aI0
aI1
aI7
aI0
aI0
aI2
aI27
aI3
aI0
aI0
aI14
aI20
aI6
aI0
aI0
aI38
aI0
aI37
aI15
aI0
aI5
aI11
aI0
aI71
aI0
aI12
aI0
aI11
aI6
asS'restricted_stock'
p141
(lp142
I585062
aI3942714
aI1788391
aI386335
aI853064
aI208510
aI462384
aI558801
aI2046079
aI409554
aI0
aI0
aI189041
aI698920
aI0
aI153686
aI698242
aI360528
aI540672
aI384930
aI0
aI1552453
aI466101
aI32460
aI0
aI630137
aI0
aI659249
aI0
aI378082
aI283649
aI0
aI126027
aI2217299
aI407503
aI0
aI441096
aI662086
aI0
aI151418
aI94556
aI985032
aI360528
aI1008149
aI869220
aI315068
aI0
aI0
aI441096
aI1757552
aI0
aI379164
aI1293424
aI869220
aI0
aI141833
aI1034346
aI2796177
aI1478269
aI47304
aI1323148
aI0
aI0
aI514847
aI0
aI0
aI417619
aI969729
aI934065
aI207940
aI235370
aI441096
aI480632
aI0
aI264013
aI524169
aI252055
aI75838
aI956775
aI161602
aI381285
aI0
aI157569
aI189041
aI365320
aI1794412
aI0
aI126027
aI2748364
aI126027
aI0
aI378082
aI2041016
aI0
aI511734
aI0
aI0
aI405999
aI208809
aI0
aI0
aI0
aI463261
aI0
aI0
aI560170
aI388167
aI0
aI950730
aI126027
aI213063
aI44093
aI0
aI0
aI0
aI363428
aI201483
aI126027
aI-2604490
aI307301
aI189041
aI0
aI196983
aI259907
aI0
aI3576206
aI0
aI315068
aI1787380
aI0
aI0
aI145796
aI346663
aI0
aI1392142
aI1248318
aI0
aI3654808
aI576792
aI0
aI901657
aI0
aI2502063
aI563798
aI315068
aI393818
asS'salary'
p143
(lp144
I365788
aI267102
aI170941
aI0
aI243293
aI267093
aI0
aI370448
aI0
aI197091
aI130724
aI288589
aI248546
aI257486
aI0
aI0
aI288542
aI251654
aI288558
aI63744
aI0
aI357091
aI271442
aI0
aI0
aI304110
aI0
aI187922
aI0
aI213625
aI249201
aI0
aI231330
aI0
aI182245
aI0
aI211788
aI0
aI0
aI0
aI0
aI224305
aI273746
aI339288
aI216582
aI210500
aI0
aI0
aI272880
aI477
aI0
aI269076
aI428780
aI211844
aI0
aI206121
aI174246
aI0
aI365038
aI0
aI365163
aI162779
aI0
aI236457
aI0
aI0
aI261516
aI329078
aI0
aI184899
aI192008
aI263413
aI262663
aI0
aI0
aI374125
aI278601
aI0
aI199157
aI0
aI96840
aI80818
aI213999
aI210692
aI222093
aI440698
aI0
aI240189
aI420636
aI275101
aI0
aI314288
aI94941
aI0
aI239502
aI0
aI0
aI0
aI0
aI6615
aI0
aI0
aI0
aI404338
aI0
aI0
aI259996
aI317543
aI0
aI201955
aI248146
aI0
aI0
aI0
aI0
aI0
aI76399
aI262788
aI0
aI261809
aI248017
aI0
aI229284
aI231946
aI221003
aI158403
aI0
aI250100
aI0
aI0
aI261879
aI239671
aI0
aI0
aI304588
aI309946
aI0
aI85274
aI247338
aI349487
aI330546
aI0
aI415189
aI265214
aI278601
aI274975
asS'to_poi_frac'
p145
(lp146
F0.0012391573729863693
aI0
aI0
aF0.0
aF0.020095693779904306
aI0
aF0.0
aF0.011040339702760084
aF0.006382978723404255
aF0.03877221324717286
aF0.1328125
aF0.0
aF0.0008080808080808081
aF0.004911220249338874
aF0.0
aI0
aF0.006257110352673493
aF0.0
aF0.07364341085271318
aI0
aI0
aF0.0
aI0
aI0
aI0
aF0.025768394908413535
aI0
aF0.0
aI0
aF0.004978220286247666
aF0.03614457831325301
aI0
aI0
aF0.012216404886561954
aI0
aI0
aF0.0007575757575757576
aI0
aF0.0
aF0.0
aF0.0013956734124214933
aI0
aF0.004961020552799433
aI0
aI0
aI0
aI0
aF0.0
aI0
aF0.0
aI0
aI0
aF0.0072168183244430495
aF0.06222222222222222
aI0
aF0.0056022408963585435
aI0
aI0
aF0.0
aF0.017241379310344827
aF0.0
aI0
aI0
aI0
aI0
aF0.003744441844137608
aI0
aF0.01266891891891892
aF0.0011185682326621924
aI0
aI0
aF0.0
aI0
aI0
aI0
aF0.015215764529807932
aF0.008073196986006458
aI0
aF0.008547008547008548
aF0.0
aF0.029323758228605626
aI0
aI0
aF0.00331858407079646
aF0.0
aI0
aF0.0
aF0.00962278675904542
aF0.004419889502762431
aF0.0
aI0
aF0.0392156862745098
aI0
aI0
aI0
aF0.008271298593879239
aI0
aF0.02936378466557912
aI0
aI0
aF0.0
aI0
aI0
aI0
aI0
aF0.0
aF0.0175
aI0
aI0
aF0.022398345968297727
aF0.001913265306122449
aI0
aI0
aF0.0006729475100942127
aI0
aF0.006954102920723227
aI0
aI0
aF0.0019120458891013384
aF0.022435897435897436
aF0.0
aI0
aF0.0009124087591240876
aF0.1291866028708134
aF0.017045454545454544
aI0
aI0
aF0.005443234836702955
aF0.009170105456212746
aF0.00183206106870229
aI0
aI0
aF0.014345035862589657
aI0
aF0.021082621082621083
aF0.006318449873631003
aI0
aF0.010080645161290322
aF0.02391304347826087
aF0.0
aF0.02015327845586148
aI0
aF0.006342494714587738
aF0.0
aF0.012716763005780347
aF0.006872852233676976
asS'name'
p147
(lp148
S'METTS MARK'
p149
aS'BAXTER JOHN C'
p150
aS'ELLIOTT STEVEN'
p151
aS'CORDES WILLIAM R'
p152
aS'HANNON KEVIN P'
p153
aS'MORDAUNT KRISTINA M'
p154
aS'MEYER ROCKFORD G'
p155
aS'MCMAHON JEFFREY'
p156
aS'HORTON STANLEY C'
p157
aS'PIPER GREGORY F'
p158
aS'HUMPHREY GENE E'
p159
aS'UMANOFF ADAM S'
p160
aS'BLACHMAN JEREMY M'
p161
aS'SUNDE MARTIN'
p162
aS'GIBBS DANA R'
p163
aS'LOWRY CHARLES P'
p164
aS'COLWELL WESLEY'
p165
aS'MULLER MARK S'
p166
aS'JACKSON CHARLENE R'
p167
aS'WESTFAHL RICHARD K'
p168
aS'WALTERS GARETH W'
p169
aS'WALLS JR ROBERT H'
p170
aS'KITCHEN LOUISE'
p171
aS'CHAN RONNIE'
p172
aS'BELFER ROBERT'
p173
aS'SHANKMAN JEFFREY A'
p174
aI0
aS'BERGSIEKER RICHARD P'
p175
aS'URQUHART JOHN A'
p176
aS'BIBI PHILIPPE A'
p177
aS'RIEKER PAULA H'
p178
aS'WHALEY DAVID A'
p179
aS'BECK SALLY W'
p180
aS'HAUG DAVID L'
p181
aS'ECHOLS JOHN B'
p182
aS'MENDELSOHN JOHN'
p183
aS'HICKERSON GARY J'
p184
aS'CLINE KENNETH W'
p185
aS'LEWIS RICHARD'
p186
aS'HAYES ROBERT E'
p187
aS'MCCARTY DANNY J'
p188
aS'KOPPER MICHAEL J'
p189
aS'LEFF DANIEL P'
p190
aS'LAVORATO JOHN J'
p191
aS'BERBERIAN DAVID'
p192
aS'DETMERING TIMOTHY J'
p193
aS'WAKEHAM JOHN'
p194
aS'POWERS WILLIAM'
p195
aS'GOLD JOSEPH'
p196
aS'BANNANTINE JAMES M'
p197
aS'DUNCAN JOHN H'
p198
aS'SHAPIRO RICHARD S'
p199
aS'SHERRIFF JOHN R'
p200
aS'SHELBY REX'
p201
aS'LEMAISTRE CHARLES'
p202
aS'DEFFNER JOSEPH M'
p203
aS'KISHKILL JOSEPH G'
p204
aI0
aS'MCCONNELL MICHAEL S'
p205
aS'PIRO JIM'
p206
aS'DELAINEY DAVID W'
p207
aS'SULLIVAN-SHAKLOVITZ COLLEEN'
p208
aI0
aS'LINDHOLM TOD A'
p209
aS'MEYER JEROME J'
p210
aS'LAY KENNETH L'
p211
aS'BUTTS ROBERT H'
p212
aS'OLSON CINDY K'
p213
aS'MCDONALD REBECCA'
p214
aS'CUMBERLAND MICHAEL S'
p215
aS'GAHN ROBERT S'
p216
aS'MCCLELLAN GEORGE'
p217
aS'HERMANN ROBERT J'
p218
aS'SCRIMSHAW MATTHEW'
p219
aS'GATHMANN WILLIAM D'
p220
aS'HAEDICKE MARK E'
p221
aS'BOWEN JR RAYMOND M'
p222
aS'GILLIS JOHN'
p223
aS'FITZGERALD JAY L'
p224
aS'MORAN MICHAEL P'
p225
aS'REDMOND BRIAN L'
p226
aS'BAZELIDES PHILIP J'
p227
aS'BELDEN TIMOTHY N'
p228
aS'DURAN WILLIAM D'
p229
aS'THORN TERENCE H'
p230
aS'FASTOW ANDREW S'
p231
aS'FOY JOE'
p232
aS'CALGER CHRISTOPHER F'
p233
aS'RICE KENNETH D'
p234
aS'KAMINSKI WINCENTY J'
p235
aS'LOCKHART EUGENE E'
p236
aS'COX DAVID'
p237
aS'OVERDYKE JR JERE C'
p238
aS'PEREIRA PAULO V. FERRAZ'
p239
aS'STABLER FRANK'
p240
aS'SKILLING JEFFREY K'
p241
aS'BLAKE JR. NORMAN P'
p242
aS'SHERRICK JEFFREY B'
p243
aS'PRENTICE JAMES'
p244
aS'GRAY RODNEY'
p245
aS'PICKERING MARK R'
p246
aS'THE TRAVEL AGENCY IN THE PARK'
p247
aS'NOLES JAMES L'
p248
aS'KEAN STEVEN J'
p249
aS'TOTAL'
p250
aS'FOWLER PEGGY'
p251
aS'WASAFF GEORGE'
p252
aI0
aS'CHRISTODOULOU DIOMEDES'
p253
aS'ALLEN PHILLIP K'
p254
aS'SHARP VICTORIA T'
p255
aS'JAEDICKE ROBERT'
p256
aI0
aS'BROWN MICHAEL'
p257
aS'BADUM JAMES P'
p258
aS'HUGHES JAMES A'
p259
aS'REYNOLDS LAWRENCE'
p260
aS'DIMICHELE RICHARD G'
p261
aS'BHATNAGAR SANJAY'
p262
aS'CARTER REBECCA C'
p263
aS'BUCHANAN HAROLD G'
p264
aI0
aS'MURRAY JULIA H'
p265
aS'GARLAND C KEVIN'
p266
aS'DODSON KEITH'
p267
aI0
aS'HIRKO JOSEPH'
p268
aS'DIETRICH JANET R'
p269
aS'DERRICK JR. JAMES V'
p270
aS'FREVERT MARK A'
p271
aS'PAI LOU L'
p272
aS'BAY FRANKLIN R'
p273
aS'HAYSLETT RODERICK J'
p274
aS'FUGH JOHN L'
p275
aS'FALLON JAMES B'
p276
aS'KOENIG MARK E'
p277
aS'SAVAGE FRANK'
p278
aS'IZZO LAWRENCE L'
p279
aS'TILNEY ELIZABETH A'
p280
aS'MARTIN AMANDA K'
p281
aS'BUY RICHARD B'
p282
aS'GRAMM WENDY L'
p283
aS'CAUSEY RICHARD A'
p284
aS'TAYLOR MITCHELL S'
p285
aS'DONAHUE JR JEFFREY M'
p286
aS'GLISAN JR BEN F'
p287
asS'total_payments'
p288
(lp289
I1061827
aI5634343
aI211725
aI0
aI288682
aI628522
aI1848227
aI4099771
aI3131860
aI1737629
aI3100224
aI1130461
aI2014835
aI1545059
aI966522
aI0
aI1490344
aI3202070
aI551174
aI762135
aI87410
aI1798780
aI3471141
aI0
aI102500
aI3038702
aI189583
aI618850
aI228656
aI2047593
aI1099100
aI0
aI969068
aI475
aI2692324
aI148
aI2081796
aI0
aI0
aI7961
aI0
aI2652612
aI2664228
aI0
aI228474
aI1204583
aI213071
aI0
aI2146973
aI916197
aI77492
aI1057548
aI4335388
aI2003885
aI87492
aI1208649
aI704896
aI4677574
aI2101364
aI0
aI4747979
aI999356
aI0
aI875889
aI2151
aI0
aI1271582
aI1321557
aI0
aI807956
aI900585
aI1318763
aI1297461
aI0
aI0
aI3859065
aI2669589
aI0
aI1414857
aI0
aI111529
aI860136
aI5501630
aI2093263
aI911453
aI2424083
aI181755
aI1639297
aI505050
aI1086821
aI0
aI1101393
aI249787
aI27942
aI1112087
aI0
aI1279
aI0
aI564348
aI1146658
aI1386690
aI362096
aI774401
aI1747522
aI0
aI0
aI1034395
aI1934359
aI0
aI4484442
aI1576511
aI83750
aI84992
aI49288
aI182466
aI0
aI394475
aI2368151
aI0
aI477557
aI1054637
aI55097
aI812194
aI1566469
aI319941
aI360300
aI91093
aI1410464
aI550981
aI0
aI3123383
aI827696
aI0
aI50591
aI3676340
aI1587421
aI3750
aI1979596
aI399393
aI0
aI2355702
aI119292
aI1868758
aI1092663
aI875760
aI1272284
asS'exercised_stock_options'
p290
(lp291
I0
aI6680544
aI4890344
aI651850
aI5538001
aI0
aI493489
aI1104054
aI5210569
aI880290
aI2282768
aI0
aI765313
aI0
aI2218275
aI372205
aI0
aI1056320
aI185063
aI0
aI1030329
aI4346544
aI81042
aI0
aI3285
aI1441898
aI0
aI0
aI0
aI1465734
aI1635238
aI98718
aI0
aI0
aI601438
aI0
aI0
aI0
aI850477
aI0
aI664375
aI0
aI0
aI4158995
aI1624396
aI2027865
aI0
aI0
aI436515
aI4046157
aI371750
aI607837
aI1835558
aI1624396
aI412878
aI17378
aI0
aI3282960
aI1623010
aI0
aI2291113
aI1362375
aI139130
aI2549361
aI0
aI0
aI0
aI1637034
aI757301
aI0
aI83237
aI506765
aI187500
aI759557
aI1753766
aI608750
aI0
aI9803
aI664461
aI59539
aI7509039
aI1599641
aI953136
aI1451869
aI4452476
aI0
aI343434
aI0
aI0
aI850010
aI0
aI117551
aI5266578
aI0
aI0
aI0
aI0
aI1426469
aI886231
aI0
aI28798
aI0
aI0
aI2022048
aI0
aI1324578
aI1668260
aI1297049
aI5127155
aI1729541
aI281073
aI431750
aI0
aI0
aI257817
aI754966
aI4160672
aI8191755
aI2604490
aI0
aI825464
aI192758
aI400478
aI636246
aI0
aI8308552
aI0
aI1550019
aI8831913
aI0
aI0
aI0
aI0
aI176378
aI940257
aI671737
aI0
aI2165172
aI591250
aI2070306
aI2542813
aI0
aI0
aI3181250
aI765920
aI384728
as.