(lp0
S'poi'
p1
aS'salary'
p2
aS'total_payments'
p3
aS'loan_advances'
p4
aS'bonus'
p5
aS'restricted_stock_deferred'
p6
aS'deferred_income'
p7
aS'from_poi_to_this_person'
p8
aS'exercised_stock_options'
p9
aS'long_term_incentive'
p10
aS'from_this_person_to_poi'
p11
a.